; Function Attrs: nounwind uwtable
define noundef i32 @wc_FreeDhKey(ptr noundef %0) local_unnamed_addr #1 {
  %.not = icmp eq ptr %0, null
  br i1 %.not, label %5, label %2

2:                                                ; preds = %1
  tail call void @sp_clear(ptr noundef nonnull %0) #14
  %3 = getelementptr inbounds nuw i8, ptr %0, i64 1040
  tail call void @sp_clear(ptr noundef nonnull %3) #14
  %4 = getelementptr inbounds nuw i8, ptr %0, i64 2080
  tail call void @sp_clear(ptr noundef nonnull %4) #14
  br label %5

5:                                                ; preds = %2, %1
  ret i32 0
}